; Function Attrs: nounwind uwtable
define hidden void @mbedtls_ssl_recv_flight_completed(ptr noundef %0) local_unnamed_addr #0 {
  %2 = getelementptr inbounds nuw i8, ptr %0, i64 112
  %3 = load ptr, ptr %2, align 8, !tbaa !75
  %4 = getelementptr inbounds nuw i8, ptr %3, i64 1896
  %5 = load ptr, ptr %4, align 8, !tbaa !111
  %.not6.i = icmp eq ptr %5, null
  br i1 %.not6.i, label %.loopexit, label %.lr.ph.i

.lr.ph.i:                                         ; preds = %1, %.lr.ph.i
  %.07.i = phi ptr [ %7, %.lr.ph.i ], [ %5, %1 ]
  %6 = getelementptr inbounds nuw i8, ptr %.07.i, i64 24
  %7 = load ptr, ptr %6, align 8, !tbaa !106
  %8 = load ptr, ptr %.07.i, align 8, !tbaa !108
  tail call void @free(ptr noundef %8) #19
  tail call void @free(ptr noundef nonnull %.07.i) #19
  %.not.i = icmp eq ptr %7, null
  br i1 %.not.i, label %.loopexit.loopexit, label %.lr.ph.i, !llvm.loop !109

.loopexit.loopexit:                               ; preds = %.lr.ph.i
  %.pre = load ptr, ptr %2, align 8, !tbaa !75
  br label %.loopexit

.loopexit:                                        ; preds = %.loopexit.loopexit, %1
  %9 = phi ptr [ %.pre, %.loopexit.loopexit ], [ %3, %1 ]
  %10 = getelementptr inbounds nuw i8, ptr %9, i64 1896
  %11 = getelementptr inbounds nuw i8, ptr %9, i64 1888
  tail call void @llvm.memset.p0.i64(ptr noundef nonnull align 8 dereferenceable(16) %10, i8 0, i64 16, i1 false)
  %12 = load i32, ptr %11, align 8, !tbaa !126
  %13 = getelementptr inbounds nuw i8, ptr %9, i64 1920
  store i32 %12, ptr %13, align 8, !tbaa !127
  %14 = getelementptr inbounds nuw i8, ptr %9, i64 1744
  store i8 0, ptr %14, align 8, !tbaa !128
  %15 = getelementptr inbounds nuw i8, ptr %9, i64 1848
  %16 = load ptr, ptr %15, align 8, !tbaa !129
  %.not.i.i = icmp eq ptr %16, null
  br i1 %.not.i.i, label %ssl_free_buffered_record.exit.i.preheader, label %17

17:                                               ; preds = %.loopexit
  %18 = getelementptr inbounds nuw i8, ptr %9, i64 1736
  %19 = getelementptr inbounds nuw i8, ptr %9, i64 1856
  %20 = load i64, ptr %19, align 8, !tbaa !130
  %21 = load i64, ptr %18, align 8, !tbaa !131
  %22 = sub i64 %21, %20
  store i64 %22, ptr %18, align 8, !tbaa !131
  tail call void @free(ptr noundef nonnull %16) #19
  store ptr null, ptr %15, align 8, !tbaa !129
  br label %ssl_free_buffered_record.exit.i.preheader

ssl_free_buffered_record.exit.i.preheader:        ; preds = %17, %.loopexit
  br label %ssl_free_buffered_record.exit.i

ssl_free_buffered_record.exit.i:                  ; preds = %ssl_free_buffered_record.exit.i.preheader, %ssl_buffering_free_slot.exit.i
  %indvars.iv.i = phi i64 [ %indvars.iv.next.i, %ssl_buffering_free_slot.exit.i ], [ 0, %ssl_free_buffered_record.exit.i.preheader ]
  %.val6.i = load ptr, ptr %2, align 8, !tbaa !75
  %23 = getelementptr inbounds nuw i8, ptr %.val6.i, i64 1752
  %24 = getelementptr inbounds nuw [4 x %struct.mbedtls_ssl_hs_buffer], ptr %23, i64 0, i64 %indvars.iv.i
  %25 = load i8, ptr %24, align 8
  %26 = and i8 %25, 1
  %.not.i7.i = icmp eq i8 %26, 0
  br i1 %.not.i7.i, label %ssl_buffering_free_slot.exit.i, label %27

27:                                               ; preds = %ssl_free_buffered_record.exit.i
  %28 = getelementptr inbounds nuw i8, ptr %.val6.i, i64 1736
  %29 = getelementptr inbounds nuw i8, ptr %24, i64 16
  %30 = load i64, ptr %29, align 8, !tbaa !132
  %31 = load i64, ptr %28, align 8, !tbaa !131
  %32 = sub i64 %31, %30
  store i64 %32, ptr %28, align 8, !tbaa !131
  %33 = getelementptr inbounds nuw i8, ptr %24, i64 8
  %34 = load ptr, ptr %33, align 8, !tbaa !134
  tail call void @mbedtls_zeroize_and_free(ptr noundef %34, i64 noundef %30) #19
  tail call void @llvm.memset.p0.i64(ptr noundef nonnull align 8 dereferenceable(24) %24, i8 0, i64 24, i1 false)
  br label %ssl_buffering_free_slot.exit.i

ssl_buffering_free_slot.exit.i:                   ; preds = %27, %ssl_free_buffered_record.exit.i
  %indvars.iv.next.i = add nuw nsw i64 %indvars.iv.i, 1
  %exitcond.not.i = icmp eq i64 %indvars.iv.next.i, 4
  br i1 %exitcond.not.i, label %mbedtls_ssl_buffering_free.exit, label %ssl_free_buffered_record.exit.i, !llvm.loop !135

mbedtls_ssl_buffering_free.exit:                  ; preds = %ssl_buffering_free_slot.exit.i
  %35 = getelementptr inbounds nuw i8, ptr %0, i64 168
  %36 = load ptr, ptr %35, align 8, !tbaa !3
  %37 = icmp eq ptr %36, null
  br i1 %37, label %mbedtls_ssl_set_timer.exit, label %38

38:                                               ; preds = %mbedtls_ssl_buffering_free.exit
  tail call void (ptr, i32, ptr, i32, ptr, ...) @mbedtls_debug_print_msg(ptr noundef nonnull %0, i32 noundef 3, ptr noundef nonnull @.str, i32 noundef 291, ptr noundef nonnull @.str.1, i32 noundef 0) #19
  %39 = load ptr, ptr %35, align 8, !tbaa !3
  %40 = getelementptr inbounds nuw i8, ptr %0, i64 160
  %41 = load ptr, ptr %40, align 8, !tbaa !16
  tail call void %39(ptr noundef %41, i32 noundef 0, i32 noundef 0) #19
  br label %mbedtls_ssl_set_timer.exit

mbedtls_ssl_set_timer.exit:                       ; preds = %mbedtls_ssl_buffering_free.exit, %38
  %42 = getelementptr inbounds nuw i8, ptr %0, i64 248
  %43 = load i32, ptr %42, align 8, !tbaa !136
  %44 = icmp eq i32 %43, 22
  br i1 %44, label %45, label %mbedtls_ssl_set_timer.exit._crit_edge

45:                                               ; preds = %mbedtls_ssl_set_timer.exit
  %46 = getelementptr inbounds nuw i8, ptr %0, i64 232
  %47 = load ptr, ptr %46, align 8, !tbaa !137
  %48 = load i8, ptr %47, align 1, !tbaa !32
  %49 = icmp eq i8 %48, 20
  %spec.select = select i1 %49, i8 3, i8 0
  br label %mbedtls_ssl_set_timer.exit._crit_edge

mbedtls_ssl_set_timer.exit._crit_edge:            ; preds = %mbedtls_ssl_set_timer.exit, %45
  %.sink = phi i8 [ %spec.select, %45 ], [ 0, %mbedtls_ssl_set_timer.exit ]
  %.sink15 = load ptr, ptr %2, align 8, !tbaa !75
  %50 = getelementptr inbounds nuw i8, ptr %.sink15, i64 13
  store i8 %.sink, ptr %50, align 1, !tbaa !110
  ret void
}